target datalayout = "e-m:e-p270:32:32-p271:32:32-p272:64:64-i64:64-i128:128-f80:128-n8:16:32:64-S128"
target triple = "x86_64-pc-linux-gnu"

%struct.CommonModeInfoParams = type { i32, i32, i32, i32, i32, ptr, i32, i32, i8, ptr, i32, i32, ptr, ptr, ptr, ptr }

; Function Attrs: nounwind uwtable
define internal void @dec_free_mi(ptr noundef %0) #0 {
  %2 = alloca ptr, align 8
  store ptr %0, ptr %2, align 8
  %3 = load ptr, ptr %2, align 8
  %4 = getelementptr inbounds nuw %struct.CommonModeInfoParams, ptr %3, i32 0, i32 5
  %5 = load ptr, ptr %4, align 8
  call void @aom_free(ptr noundef %5)
  %6 = load ptr, ptr %2, align 8
  %7 = getelementptr inbounds nuw %struct.CommonModeInfoParams, ptr %6, i32 0, i32 5
  store ptr null, ptr %7, align 8
  %8 = load ptr, ptr %2, align 8
  %9 = getelementptr inbounds nuw %struct.CommonModeInfoParams, ptr %8, i32 0, i32 9
  %10 = load ptr, ptr %9, align 8
  call void @aom_free(ptr noundef %10)
  %11 = load ptr, ptr %2, align 8
  %12 = getelementptr inbounds nuw %struct.CommonModeInfoParams, ptr %11, i32 0, i32 9
  store ptr null, ptr %12, align 8
  %13 = load ptr, ptr %2, align 8
  %14 = getelementptr inbounds nuw %struct.CommonModeInfoParams, ptr %13, i32 0, i32 6
  store i32 0, ptr %14, align 8
  %15 = load ptr, ptr %2, align 8
  %16 = getelementptr inbounds nuw %struct.CommonModeInfoParams, ptr %15, i32 0, i32 12
  %17 = load ptr, ptr %16, align 8
  call void @aom_free(ptr noundef %17)
  %18 = load ptr, ptr %2, align 8
  %19 = getelementptr inbounds nuw %struct.CommonModeInfoParams, ptr %18, i32 0, i32 12
  store ptr null, ptr %19, align 8
  ret void
}