; Function Attrs: nounwind uwtable
define internal void @dec_free_mi(ptr nocapture noundef %0) #0 {
  %2 = getelementptr inbounds nuw i8, ptr %0, i64 24
  %3 = load ptr, ptr %2, align 8
  tail call void @aom_free(ptr noundef %3) #10
  store ptr null, ptr %2, align 8
  %4 = getelementptr inbounds nuw i8, ptr %0, i64 48
  %5 = load ptr, ptr %4, align 8
  tail call void @aom_free(ptr noundef %5) #10
  store ptr null, ptr %4, align 8
  %6 = getelementptr inbounds nuw i8, ptr %0, i64 32
  store i32 0, ptr %6, align 8
  %7 = getelementptr inbounds nuw i8, ptr %0, i64 64
  %8 = load ptr, ptr %7, align 8
  tail call void @aom_free(ptr noundef %8) #10
  store ptr null, ptr %7, align 8
  ret void
}